target datalayout = "e-m:e-p270:32:32-p271:32:32-p272:64:64-i64:64-i128:128-f80:128-n8:16:32:64-S128"
target triple = "x86_64-pc-linux-gnu"

%struct.hashmap = type { ptr, ptr, ptr, i32, i32, i32, i32, i8 }
%struct.hashmap_entry = type { ptr, i32 }
%struct.pool_entry = type { %struct.hashmap_entry, i64, [0 x i8] }

@memintern.map = internal global %struct.hashmap zeroinitializer, align 8
@.str = private unnamed_addr constant [27 x i8] c"size_t overflow: %lu + %lu\00", align 1

; Function Attrs: inlinehint nounwind uwtable
define internal i32 @entry_equals(ptr noundef %0, ptr noundef %1, ptr noundef %2, ptr noundef %3) #4 {
  %5 = alloca ptr, align 8
  %6 = alloca ptr, align 8
  %7 = alloca ptr, align 8
  %8 = alloca ptr, align 8
  store ptr %0, ptr %5, align 8, !tbaa !21
  store ptr %1, ptr %6, align 8, !tbaa !29
  store ptr %2, ptr %7, align 8, !tbaa !29
  store ptr %3, ptr %8, align 8, !tbaa !15
  %9 = load ptr, ptr %6, align 8, !tbaa !29
  %10 = load ptr, ptr %7, align 8, !tbaa !29
  %11 = icmp eq ptr %9, %10
  br i1 %11, label %35, label %12

12:                                               ; preds = %4
  %13 = load ptr, ptr %6, align 8, !tbaa !29
  %14 = getelementptr inbounds nuw %struct.hashmap_entry, ptr %13, i32 0, i32 1
  %15 = load i32, ptr %14, align 8, !tbaa !41
  %16 = load ptr, ptr %7, align 8, !tbaa !29
  %17 = getelementptr inbounds nuw %struct.hashmap_entry, ptr %16, i32 0, i32 1
  %18 = load i32, ptr %17, align 8, !tbaa !41
  %19 = icmp eq i32 %15, %18
  br i1 %19, label %20, label %33

20:                                               ; preds = %12
  %21 = load ptr, ptr %5, align 8, !tbaa !21
  %22 = getelementptr inbounds nuw %struct.hashmap, ptr %21, i32 0, i32 1
  %23 = load ptr, ptr %22, align 8, !tbaa !26
  %24 = load ptr, ptr %5, align 8, !tbaa !21
  %25 = getelementptr inbounds nuw %struct.hashmap, ptr %24, i32 0, i32 2
  %26 = load ptr, ptr %25, align 8, !tbaa !27
  %27 = load ptr, ptr %6, align 8, !tbaa !29
  %28 = load ptr, ptr %7, align 8, !tbaa !29
  %29 = load ptr, ptr %8, align 8, !tbaa !15
  %30 = call i32 %23(ptr noundef %26, ptr noundef %27, ptr noundef %28, ptr noundef %29)
  %31 = icmp ne i32 %30, 0
  %32 = xor i1 %31, true
  br label %33

33:                                               ; preds = %20, %12
  %34 = phi i1 [ false, %12 ], [ %32, %20 ]
  br label %35

35:                                               ; preds = %33, %4
  %36 = phi i1 [ true, %4 ], [ %34, %33 ]
  %37 = zext i1 %36 to i32
  ret i32 %37
}

; Function Attrs: inlinehint nounwind uwtable
define internal i32 @bucket(ptr noundef %0, ptr noundef %1) #4 {
  %3 = alloca ptr, align 8
  %4 = alloca ptr, align 8
  store ptr %0, ptr %3, align 8, !tbaa !21
  store ptr %1, ptr %4, align 8, !tbaa !29
  %5 = load ptr, ptr %4, align 8, !tbaa !29
  %6 = getelementptr inbounds nuw %struct.hashmap_entry, ptr %5, i32 0, i32 1
  %7 = load i32, ptr %6, align 8, !tbaa !41
  %8 = load ptr, ptr %3, align 8, !tbaa !21
  %9 = getelementptr inbounds nuw %struct.hashmap, ptr %8, i32 0, i32 4
  %10 = load i32, ptr %9, align 4, !tbaa !23
  %11 = sub i32 %10, 1
  %12 = and i32 %7, %11
  ret i32 %12
}

; Function Attrs: inlinehint nounwind uwtable
define internal ptr @find_entry_ptr(ptr noundef %0, ptr noundef %1, ptr noundef %2) #4 {
  %4 = alloca ptr, align 8
  %5 = alloca ptr, align 8
  %6 = alloca ptr, align 8
  %7 = alloca ptr, align 8
  store ptr %0, ptr %4, align 8, !tbaa !21
  store ptr %1, ptr %5, align 8, !tbaa !29
  store ptr %2, ptr %6, align 8, !tbaa !15
  call void @llvm.lifetime.start.p0(i64 8, ptr %7) #9
  %8 = load ptr, ptr %4, align 8, !tbaa !21
  %9 = getelementptr inbounds nuw %struct.hashmap, ptr %8, i32 0, i32 0
  %10 = load ptr, ptr %9, align 8, !tbaa !31
  %11 = load ptr, ptr %4, align 8, !tbaa !21
  %12 = load ptr, ptr %5, align 8, !tbaa !29
  %13 = call i32 @bucket(ptr noundef %11, ptr noundef %12)
  %14 = zext i32 %13 to i64
  %15 = getelementptr inbounds nuw ptr, ptr %10, i64 %14
  store ptr %15, ptr %7, align 8, !tbaa !36
  br label %16

16:                                               ; preds = %31, %3
  %17 = load ptr, ptr %7, align 8, !tbaa !36
  %18 = load ptr, ptr %17, align 8, !tbaa !29
  %19 = icmp ne ptr %18, null
  br i1 %19, label %20, label %29

20:                                               ; preds = %16
  %21 = load ptr, ptr %4, align 8, !tbaa !21
  %22 = load ptr, ptr %7, align 8, !tbaa !36
  %23 = load ptr, ptr %22, align 8, !tbaa !29
  %24 = load ptr, ptr %5, align 8, !tbaa !29
  %25 = load ptr, ptr %6, align 8, !tbaa !15
  %26 = call i32 @entry_equals(ptr noundef %21, ptr noundef %23, ptr noundef %24, ptr noundef %25)
  %27 = icmp ne i32 %26, 0
  %28 = xor i1 %27, true
  br label %29

29:                                               ; preds = %20, %16
  %30 = phi i1 [ false, %16 ], [ %28, %20 ]
  br i1 %30, label %31, label %35

31:                                               ; preds = %29
  %32 = load ptr, ptr %7, align 8, !tbaa !36
  %33 = load ptr, ptr %32, align 8, !tbaa !29
  %34 = getelementptr inbounds nuw %struct.hashmap_entry, ptr %33, i32 0, i32 0
  store ptr %34, ptr %7, align 8, !tbaa !36
  br label %16, !llvm.loop !37

35:                                               ; preds = %29
  %36 = load ptr, ptr %7, align 8, !tbaa !36
  call void @llvm.lifetime.end.p0(i64 8, ptr %7) #9
  ret ptr %36
}

; Function Attrs: nounwind uwtable
define internal void @alloc_table(ptr noundef %0, i32 noundef %1) #0 {
  %3 = alloca ptr, align 8
  %4 = alloca i32, align 4
  store ptr %0, ptr %3, align 8, !tbaa !21
  store i32 %1, ptr %4, align 4, !tbaa !9
  %5 = load i32, ptr %4, align 4, !tbaa !9
  %6 = load ptr, ptr %3, align 8, !tbaa !21
  %7 = getelementptr inbounds nuw %struct.hashmap, ptr %6, i32 0, i32 4
  store i32 %5, ptr %7, align 4, !tbaa !23
  %8 = load i32, ptr %4, align 4, !tbaa !9
  %9 = zext i32 %8 to i64
  %10 = call ptr @xcalloc(i64 noundef %9, i64 noundef 8)
  %11 = load ptr, ptr %3, align 8, !tbaa !21
  %12 = getelementptr inbounds nuw %struct.hashmap, ptr %11, i32 0, i32 0
  store ptr %10, ptr %12, align 8, !tbaa !31
  %13 = load i32, ptr %4, align 4, !tbaa !9
  %14 = zext i32 %13 to i64
  %15 = mul i64 %14, 80
  %16 = udiv i64 %15, 100
  %17 = trunc i64 %16 to i32
  %18 = load ptr, ptr %3, align 8, !tbaa !21
  %19 = getelementptr inbounds nuw %struct.hashmap, ptr %18, i32 0, i32 5
  store i32 %17, ptr %19, align 8, !tbaa !32
  %20 = load i32, ptr %4, align 4, !tbaa !9
  %21 = icmp ule i32 %20, 64
  br i1 %21, label %22, label %25

22:                                               ; preds = %2
  %23 = load ptr, ptr %3, align 8, !tbaa !21
  %24 = getelementptr inbounds nuw %struct.hashmap, ptr %23, i32 0, i32 6
  store i32 0, ptr %24, align 4, !tbaa !33
  br label %32

25:                                               ; preds = %2
  %26 = load ptr, ptr %3, align 8, !tbaa !21
  %27 = getelementptr inbounds nuw %struct.hashmap, ptr %26, i32 0, i32 5
  %28 = load i32, ptr %27, align 8, !tbaa !32
  %29 = udiv i32 %28, 5
  %30 = load ptr, ptr %3, align 8, !tbaa !21
  %31 = getelementptr inbounds nuw %struct.hashmap, ptr %30, i32 0, i32 6
  store i32 %29, ptr %31, align 4, !tbaa !33
  br label %32

32:                                               ; preds = %25, %22
  ret void
}

; Function Attrs: inlinehint nounwind uwtable
define internal i64 @st_add(i64 noundef %0, i64 noundef %1) #4 {
  %3 = alloca i64, align 8
  %4 = alloca i64, align 8
  store i64 %0, ptr %3, align 8, !tbaa !16
  store i64 %1, ptr %4, align 8, !tbaa !16
  %5 = load i64, ptr %4, align 8, !tbaa !16
  %6 = load i64, ptr %3, align 8, !tbaa !16
  %7 = sub i64 -1, %6
  %8 = icmp ugt i64 %5, %7
  br i1 %8, label %9, label %12

9:                                                ; preds = %2
  %10 = load i64, ptr %3, align 8, !tbaa !16
  %11 = load i64, ptr %4, align 8, !tbaa !16
  call void (ptr, ...) @die(ptr noundef @.str, i64 noundef %10, i64 noundef %11) #11
  unreachable

12:                                               ; preds = %2
  %13 = load i64, ptr %3, align 8, !tbaa !16
  %14 = load i64, ptr %4, align 8, !tbaa !16
  %15 = add i64 %13, %14
  ret i64 %15
}

; Function Attrs: inlinehint nounwind uwtable
define internal ptr @container_of_or_null_offset(ptr noundef %0, i64 noundef %1) #4 {
  %3 = alloca ptr, align 8
  %4 = alloca i64, align 8
  store ptr %0, ptr %3, align 8, !tbaa !15
  store i64 %1, ptr %4, align 8, !tbaa !16
  %5 = load ptr, ptr %3, align 8, !tbaa !15
  %6 = icmp ne ptr %5, null
  br i1 %6, label %7, label %12

7:                                                ; preds = %2
  %8 = load ptr, ptr %3, align 8, !tbaa !15
  %9 = load i64, ptr %4, align 8, !tbaa !16
  %10 = sub i64 0, %9
  %11 = getelementptr inbounds i8, ptr %8, i64 %10
  br label %13

12:                                               ; preds = %2
  br label %13

13:                                               ; preds = %12, %7
  %14 = phi ptr [ %11, %7 ], [ null, %12 ]
  ret ptr %14
}

; Function Attrs: nounwind uwtable
define dso_local ptr @hashmap_get(ptr noundef %0, ptr noundef %1, ptr noundef %2) #0 {
  %4 = alloca ptr, align 8
  %5 = alloca ptr, align 8
  %6 = alloca ptr, align 8
  %7 = alloca ptr, align 8
  store ptr %0, ptr %5, align 8, !tbaa !21
  store ptr %1, ptr %6, align 8, !tbaa !29
  store ptr %2, ptr %7, align 8, !tbaa !15
  %8 = load ptr, ptr %5, align 8, !tbaa !21
  %9 = getelementptr inbounds nuw %struct.hashmap, ptr %8, i32 0, i32 0
  %10 = load ptr, ptr %9, align 8, !tbaa !31
  %11 = icmp ne ptr %10, null
  br i1 %11, label %13, label %12

12:                                               ; preds = %3
  store ptr null, ptr %4, align 8
  br label %19

13:                                               ; preds = %3
  %14 = load ptr, ptr %5, align 8, !tbaa !21
  %15 = load ptr, ptr %6, align 8, !tbaa !29
  %16 = load ptr, ptr %7, align 8, !tbaa !15
  %17 = call ptr @find_entry_ptr(ptr noundef %14, ptr noundef %15, ptr noundef %16)
  %18 = load ptr, ptr %17, align 8, !tbaa !29
  store ptr %18, ptr %4, align 8
  br label %19

19:                                               ; preds = %13, %12
  %20 = load ptr, ptr %4, align 8
  ret ptr %20
}

; Function Attrs: inlinehint nounwind uwtable
define internal void @hashmap_entry_init(ptr noundef %0, i32 noundef %1) #4 {
  %3 = alloca ptr, align 8
  %4 = alloca i32, align 4
  store ptr %0, ptr %3, align 8, !tbaa !29
  store i32 %1, ptr %4, align 4, !tbaa !9
  %5 = load i32, ptr %4, align 4, !tbaa !9
  %6 = load ptr, ptr %3, align 8, !tbaa !29
  %7 = getelementptr inbounds nuw %struct.hashmap_entry, ptr %6, i32 0, i32 1
  store i32 %5, ptr %7, align 8, !tbaa !41
  %8 = load ptr, ptr %3, align 8, !tbaa !29
  %9 = getelementptr inbounds nuw %struct.hashmap_entry, ptr %8, i32 0, i32 0
  store ptr null, ptr %9, align 8, !tbaa !38
  ret void
}

; Function Attrs: nounwind uwtable
define dso_local i32 @memhash(ptr noundef %0, i64 noundef %1) #0 {
  %3 = alloca ptr, align 8
  %4 = alloca i64, align 8
  %5 = alloca i32, align 4
  %6 = alloca ptr, align 8
  %7 = alloca i32, align 4
  store ptr %0, ptr %3, align 8, !tbaa !15
  store i64 %1, ptr %4, align 8, !tbaa !16
  call void @llvm.lifetime.start.p0(i64 4, ptr %5) #9
  store i32 -2128831035, ptr %5, align 4, !tbaa !9
  call void @llvm.lifetime.start.p0(i64 8, ptr %6) #9
  %8 = load ptr, ptr %3, align 8, !tbaa !15
  store ptr %8, ptr %6, align 8, !tbaa !4
  br label %9

9:                                                ; preds = %13, %2
  %10 = load i64, ptr %4, align 8, !tbaa !16
  %11 = add i64 %10, -1
  store i64 %11, ptr %4, align 8, !tbaa !16
  %12 = icmp ne i64 %10, 0
  br i1 %12, label %13, label %22

13:                                               ; preds = %9
  call void @llvm.lifetime.start.p0(i64 4, ptr %7) #9
  %14 = load ptr, ptr %6, align 8, !tbaa !4
  %15 = getelementptr inbounds nuw i8, ptr %14, i32 1
  store ptr %15, ptr %6, align 8, !tbaa !4
  %16 = load i8, ptr %14, align 1, !tbaa !11
  %17 = zext i8 %16 to i32
  store i32 %17, ptr %7, align 4, !tbaa !9
  %18 = load i32, ptr %5, align 4, !tbaa !9
  %19 = mul i32 %18, 16777619
  %20 = load i32, ptr %7, align 4, !tbaa !9
  %21 = xor i32 %19, %20
  store i32 %21, ptr %5, align 4, !tbaa !9
  call void @llvm.lifetime.end.p0(i64 4, ptr %7) #9
  br label %9, !llvm.loop !18

22:                                               ; preds = %9
  %23 = load i32, ptr %5, align 4, !tbaa !9
  call void @llvm.lifetime.end.p0(i64 8, ptr %6) #9
  call void @llvm.lifetime.end.p0(i64 4, ptr %5) #9
  ret i32 %23
}

; Function Attrs: nounwind uwtable
define dso_local void @hashmap_init(ptr noundef %0, ptr noundef %1, ptr noundef %2, i64 noundef %3) #0 {
  %5 = alloca ptr, align 8
  %6 = alloca ptr, align 8
  %7 = alloca ptr, align 8
  %8 = alloca i64, align 8
  %9 = alloca i32, align 4
  store ptr %0, ptr %5, align 8, !tbaa !21
  store ptr %1, ptr %6, align 8, !tbaa !15
  store ptr %2, ptr %7, align 8, !tbaa !15
  store i64 %3, ptr %8, align 8, !tbaa !16
  call void @llvm.lifetime.start.p0(i64 4, ptr %9) #9
  store i32 64, ptr %9, align 4, !tbaa !9
  %10 = load ptr, ptr %5, align 8, !tbaa !21
  call void @llvm.memset.p0.i64(ptr align 8 %10, i8 0, i64 48, i1 false)
  %11 = load ptr, ptr %6, align 8, !tbaa !15
  %12 = icmp ne ptr %11, null
  br i1 %12, label %13, label %15

13:                                               ; preds = %4
  %14 = load ptr, ptr %6, align 8, !tbaa !15
  br label %16

15:                                               ; preds = %4
  br label %16

16:                                               ; preds = %15, %13
  %17 = phi ptr [ %14, %13 ], [ @always_equal, %15 ]
  %18 = load ptr, ptr %5, align 8, !tbaa !21
  %19 = getelementptr inbounds nuw %struct.hashmap, ptr %18, i32 0, i32 1
  store ptr %17, ptr %19, align 8, !tbaa !26
  %20 = load ptr, ptr %7, align 8, !tbaa !15
  %21 = load ptr, ptr %5, align 8, !tbaa !21
  %22 = getelementptr inbounds nuw %struct.hashmap, ptr %21, i32 0, i32 2
  store ptr %20, ptr %22, align 8, !tbaa !27
  %23 = load i64, ptr %8, align 8, !tbaa !16
  %24 = mul i64 %23, 100
  %25 = udiv i64 %24, 80
  %26 = trunc i64 %25 to i32
  %27 = zext i32 %26 to i64
  store i64 %27, ptr %8, align 8, !tbaa !16
  br label %28

28:                                               ; preds = %33, %16
  %29 = load i64, ptr %8, align 8, !tbaa !16
  %30 = load i32, ptr %9, align 4, !tbaa !9
  %31 = zext i32 %30 to i64
  %32 = icmp ugt i64 %29, %31
  br i1 %32, label %33, label %36

33:                                               ; preds = %28
  %34 = load i32, ptr %9, align 4, !tbaa !9
  %35 = shl i32 %34, 2
  store i32 %35, ptr %9, align 4, !tbaa !9
  br label %28, !llvm.loop !28

36:                                               ; preds = %28
  %37 = load ptr, ptr %5, align 8, !tbaa !21
  %38 = load i32, ptr %9, align 4, !tbaa !9
  call void @alloc_table(ptr noundef %37, i32 noundef %38)
  %39 = load ptr, ptr %5, align 8, !tbaa !21
  %40 = getelementptr inbounds nuw %struct.hashmap, ptr %39, i32 0, i32 7
  %41 = load i8, ptr %40, align 8
  %42 = and i8 %41, -2
  %43 = or i8 %42, 1
  store i8 %43, ptr %40, align 8
  call void @llvm.lifetime.end.p0(i64 4, ptr %9) #9
  ret void
}

; Function Attrs: nounwind uwtable
define dso_local ptr @memintern(ptr noundef %0, i64 noundef %1) #0 {
  %3 = alloca ptr, align 8
  %4 = alloca i64, align 8
  %5 = alloca %struct.pool_entry, align 8
  %6 = alloca ptr, align 8
  %7 = alloca i64, align 8
  store ptr %0, ptr %3, align 8, !tbaa !15
  store i64 %1, ptr %4, align 8, !tbaa !16
  call void @llvm.lifetime.start.p0(i64 24, ptr %5) #9
  call void @llvm.lifetime.start.p0(i64 8, ptr %6) #9
  %8 = load i32, ptr getelementptr inbounds nuw (%struct.hashmap, ptr @memintern.map, i32 0, i32 4), align 4, !tbaa !23
  %9 = icmp ne i32 %8, 0
  br i1 %9, label %11, label %10

10:                                               ; preds = %2
  call void @hashmap_init(ptr noundef @memintern.map, ptr noundef @pool_entry_cmp, ptr noundef null, i64 noundef 0)
  br label %11

11:                                               ; preds = %10, %2
  %12 = getelementptr inbounds nuw %struct.pool_entry, ptr %5, i32 0, i32 0
  %13 = load ptr, ptr %3, align 8, !tbaa !15
  %14 = load i64, ptr %4, align 8, !tbaa !16
  %15 = call i32 @memhash(ptr noundef %13, i64 noundef %14)
  call void @hashmap_entry_init(ptr noundef %12, i32 noundef %15)
  %16 = load i64, ptr %4, align 8, !tbaa !16
  %17 = getelementptr inbounds nuw %struct.pool_entry, ptr %5, i32 0, i32 1
  store i64 %16, ptr %17, align 8, !tbaa !16
  %18 = getelementptr inbounds nuw %struct.pool_entry, ptr %5, i32 0, i32 0
  %19 = load ptr, ptr %3, align 8, !tbaa !15
  %20 = call ptr @hashmap_get(ptr noundef @memintern.map, ptr noundef %18, ptr noundef %19)
  %21 = call ptr @container_of_or_null_offset(ptr noundef %20, i64 noundef 0)
  store ptr %21, ptr %6, align 8, !tbaa !50
  %22 = load ptr, ptr %6, align 8, !tbaa !50
  %23 = icmp ne ptr %22, null
  br i1 %23, label %48, label %24

24:                                               ; preds = %11
  br label %25

25:                                               ; preds = %24
  call void @llvm.lifetime.start.p0(i64 8, ptr %7) #9
  %26 = load i64, ptr %4, align 8, !tbaa !16
  store i64 %26, ptr %7, align 8, !tbaa !16
  %27 = load i64, ptr %7, align 8, !tbaa !16
  %28 = call i64 @st_add(i64 noundef 24, i64 noundef %27)
  %29 = call i64 @st_add(i64 noundef %28, i64 noundef 1)
  %30 = call ptr @xcalloc(i64 noundef 1, i64 noundef %29)
  store ptr %30, ptr %6, align 8, !tbaa !50
  %31 = load ptr, ptr %6, align 8, !tbaa !50
  %32 = getelementptr inbounds nuw %struct.pool_entry, ptr %31, i32 0, i32 2
  %33 = getelementptr inbounds [0 x i8], ptr %32, i64 0, i64 0
  %34 = load ptr, ptr %3, align 8, !tbaa !15
  %35 = load i64, ptr %7, align 8, !tbaa !16
  call void @llvm.memcpy.p0.p0.i64(ptr align 8 %33, ptr align 1 %34, i64 %35, i1 false)
  call void @llvm.lifetime.end.p0(i64 8, ptr %7) #9
  br label %36

36:                                               ; preds = %25
  br label %37

37:                                               ; preds = %36
  %38 = load ptr, ptr %6, align 8, !tbaa !50
  %39 = getelementptr inbounds nuw %struct.pool_entry, ptr %38, i32 0, i32 0
  %40 = getelementptr inbounds nuw %struct.pool_entry, ptr %5, i32 0, i32 0
  %41 = getelementptr inbounds nuw %struct.hashmap_entry, ptr %40, i32 0, i32 1
  %42 = load i32, ptr %41, align 8, !tbaa !41
  call void @hashmap_entry_init(ptr noundef %39, i32 noundef %42)
  %43 = load i64, ptr %4, align 8, !tbaa !16
  %44 = load ptr, ptr %6, align 8, !tbaa !50
  %45 = getelementptr inbounds nuw %struct.pool_entry, ptr %44, i32 0, i32 1
  store i64 %43, ptr %45, align 8, !tbaa !16
  %46 = load ptr, ptr %6, align 8, !tbaa !50
  %47 = getelementptr inbounds nuw %struct.pool_entry, ptr %46, i32 0, i32 0
  call void @hashmap_add(ptr noundef @memintern.map, ptr noundef %47)
  br label %48

48:                                               ; preds = %37, %11
  %49 = load ptr, ptr %6, align 8, !tbaa !50
  %50 = getelementptr inbounds nuw %struct.pool_entry, ptr %49, i32 0, i32 2
  %51 = getelementptr inbounds [0 x i8], ptr %50, i64 0, i64 0
  call void @llvm.lifetime.end.p0(i64 8, ptr %6) #9
  call void @llvm.lifetime.end.p0(i64 24, ptr %5) #9
  ret ptr %51
}