; Function Attrs: nounwind uwtable
define dso_local ptr @memintern(ptr noundef %0, i64 noundef %1) local_unnamed_addr #3 {
  %3 = alloca %struct.pool_entry, align 8
  call void @llvm.lifetime.start.p0(i64 24, ptr nonnull %3) #15
  %4 = load i32, ptr getelementptr inbounds nuw (i8, ptr @memintern.map, i64 28), align 4, !tbaa !13
  %.not = icmp eq i32 %4, 0
  br i1 %.not, label %5, label %9

5:                                                ; preds = %2
  tail call void @llvm.memset.p0.i64(ptr noundef nonnull align 8 dereferenceable(48) @memintern.map, i8 0, i64 48, i1 false)
  store ptr @pool_entry_cmp, ptr getelementptr inbounds nuw (i8, ptr @memintern.map, i64 8), align 8, !tbaa !18
  store i32 64, ptr getelementptr inbounds nuw (i8, ptr @memintern.map, i64 28), align 4, !tbaa !13
  %6 = tail call ptr @xcalloc(i64 noundef 64, i64 noundef 8) #15
  store ptr %6, ptr @memintern.map, align 8, !tbaa !21
  store i32 51, ptr getelementptr inbounds nuw (i8, ptr @memintern.map, i64 32), align 8, !tbaa !22
  store i32 0, ptr getelementptr inbounds nuw (i8, ptr @memintern.map, i64 36), align 4, !tbaa !23
  %7 = load i8, ptr getelementptr inbounds nuw (i8, ptr @memintern.map, i64 40), align 8
  %8 = or i8 %7, 1
  store i8 %8, ptr getelementptr inbounds nuw (i8, ptr @memintern.map, i64 40), align 8
  br label %9

9:                                                ; preds = %5, %2
  %.not7.i = icmp eq i64 %1, 0
  br i1 %.not7.i, label %memhash.exit, label %.lr.ph.i

.lr.ph.i:                                         ; preds = %9, %.lr.ph.i
  %.010.i = phi i64 [ %10, %.lr.ph.i ], [ %1, %9 ]
  %.059.i = phi ptr [ %11, %.lr.ph.i ], [ %0, %9 ]
  %.068.i = phi i32 [ %15, %.lr.ph.i ], [ -2128831035, %9 ]
  %10 = add i64 %.010.i, -1
  %11 = getelementptr inbounds nuw i8, ptr %.059.i, i64 1
  %12 = load i8, ptr %.059.i, align 1, !tbaa !4
  %13 = zext i8 %12 to i32
  %14 = mul i32 %.068.i, 16777619
  %15 = xor i32 %14, %13
  %.not.i = icmp eq i64 %10, 0
  br i1 %.not.i, label %memhash.exit, label %.lr.ph.i, !llvm.loop !10

memhash.exit:                                     ; preds = %.lr.ph.i, %9
  %.06.lcssa.i = phi i32 [ -2128831035, %9 ], [ %15, %.lr.ph.i ]
  %16 = getelementptr inbounds nuw i8, ptr %3, i64 8
  store i32 %.06.lcssa.i, ptr %16, align 8, !tbaa !30
  store ptr null, ptr %3, align 8, !tbaa !26
  %17 = getelementptr inbounds nuw i8, ptr %3, i64 16
  store i64 %1, ptr %17, align 8, !tbaa !40
  %18 = load ptr, ptr @memintern.map, align 8, !tbaa !21
  %.not.i16 = icmp eq ptr %18, null
  br i1 %.not.i16, label %hashmap_get.exit.thread, label %19

19:                                               ; preds = %memhash.exit
  %.val.i.i = load i32, ptr getelementptr inbounds nuw (i8, ptr @memintern.map, i64 28), align 4, !tbaa !13
  %20 = add i32 %.val.i.i, -1
  %21 = and i32 %20, %.06.lcssa.i
  %22 = zext i32 %21 to i64
  %23 = getelementptr inbounds nuw ptr, ptr %18, i64 %22
  %24 = load ptr, ptr %23, align 8, !tbaa !24
  %.not16.i.i = icmp eq ptr %24, null
  %25 = icmp eq ptr %24, %3
  %or.cond17.i.i = or i1 %.not16.i.i, %25
  br i1 %or.cond17.i.i, label %hashmap_get.exit, label %.lr.ph.i.i

.lr.ph.i.i:                                       ; preds = %19, %entry_equals.exit.thread.i.i
  %26 = phi ptr [ %35, %entry_equals.exit.thread.i.i ], [ %24, %19 ]
  %.018.i.i = phi ptr [ %34, %entry_equals.exit.thread.i.i ], [ %23, %19 ]
  %27 = getelementptr inbounds nuw i8, ptr %26, i64 8
  %28 = load i32, ptr %27, align 8, !tbaa !30
  %29 = load i32, ptr %16, align 8, !tbaa !30
  %30 = icmp eq i32 %28, %29
  br i1 %30, label %entry_equals.exit.i.i, label %entry_equals.exit.thread.i.i

entry_equals.exit.i.i:                            ; preds = %.lr.ph.i.i
  %31 = load ptr, ptr getelementptr inbounds nuw (i8, ptr @memintern.map, i64 8), align 8, !tbaa !18
  %32 = load ptr, ptr getelementptr inbounds nuw (i8, ptr @memintern.map, i64 16), align 8, !tbaa !19
  %33 = call i32 %31(ptr noundef %32, ptr noundef nonnull %26, ptr noundef nonnull %3, ptr noundef %0) #15
  %.not.i.not.i.i = icmp eq i32 %33, 0
  %.pre.pre.i = load ptr, ptr %.018.i.i, align 8, !tbaa !24
  br i1 %.not.i.not.i.i, label %hashmap_get.exit, label %entry_equals.exit.thread.i.i

entry_equals.exit.thread.i.i:                     ; preds = %entry_equals.exit.i.i, %.lr.ph.i.i
  %34 = phi ptr [ %26, %.lr.ph.i.i ], [ %.pre.pre.i, %entry_equals.exit.i.i ]
  %35 = load ptr, ptr %34, align 8, !tbaa !24
  %.not.i.i = icmp eq ptr %35, null
  %36 = icmp eq ptr %35, %3
  %or.cond.i.i = or i1 %.not.i.i, %36
  br i1 %or.cond.i.i, label %hashmap_get.exit, label %.lr.ph.i.i, !llvm.loop !31

hashmap_get.exit:                                 ; preds = %entry_equals.exit.thread.i.i, %entry_equals.exit.i.i, %19
  %.0.i = phi ptr [ %24, %19 ], [ %35, %entry_equals.exit.thread.i.i ], [ %.pre.pre.i, %entry_equals.exit.i.i ]
  %.not15 = icmp eq ptr %.0.i, null
  br i1 %.not15, label %hashmap_get.exit.thread, label %47

hashmap_get.exit.thread:                          ; preds = %memhash.exit, %hashmap_get.exit
  %37 = icmp ugt i64 %1, -25
  br i1 %37, label %38, label %st_add.exit

38:                                               ; preds = %hashmap_get.exit.thread
  call void (ptr, ...) @die(ptr noundef nonnull @.str, i64 noundef 24, i64 noundef %1) #16
  unreachable

st_add.exit:                                      ; preds = %hashmap_get.exit.thread
  %39 = icmp eq i64 %1, -25
  br i1 %39, label %40, label %st_add.exit17

40:                                               ; preds = %st_add.exit
  call void (ptr, ...) @die(ptr noundef nonnull @.str, i64 noundef -1, i64 noundef 1) #16
  unreachable

st_add.exit17:                                    ; preds = %st_add.exit
  %41 = add nuw i64 %1, 25
  %42 = call ptr @xcalloc(i64 noundef 1, i64 noundef %41) #15
  %43 = getelementptr inbounds nuw i8, ptr %42, i64 24
  call void @llvm.memcpy.p0.p0.i64(ptr nonnull align 8 %43, ptr align 1 %0, i64 %1, i1 false)
  %44 = load i32, ptr %16, align 8, !tbaa !30
  %45 = getelementptr inbounds nuw i8, ptr %42, i64 8
  store i32 %44, ptr %45, align 8, !tbaa !30
  store ptr null, ptr %42, align 8, !tbaa !26
  %46 = getelementptr inbounds nuw i8, ptr %42, i64 16
  store i64 %1, ptr %46, align 8, !tbaa !40
  call void @hashmap_add(ptr noundef nonnull @memintern.map, ptr noundef nonnull %42)
  br label %47

47:                                               ; preds = %st_add.exit17, %hashmap_get.exit
  %.0 = phi ptr [ %.0.i, %hashmap_get.exit ], [ %42, %st_add.exit17 ]
  %48 = getelementptr inbounds nuw i8, ptr %.0, i64 24
  call void @llvm.lifetime.end.p0(i64 24, ptr nonnull %3) #15
  ret ptr %48
}